; Function Attrs: nounwind uwtable
define ptr @l_Lean_Elab_Command_getScopes___rarg(ptr noundef %0, ptr noundef %1) local_unnamed_addr #0 {
  %3 = tail call ptr @lean_st_ref_get(ptr noundef %0, ptr noundef %1) #6
  %.val = load i32, ptr %3, align 4, !tbaa !4
  %4 = icmp eq i32 %.val, 1
  %5 = getelementptr inbounds nuw i8, ptr %3, i64 8
  %6 = load ptr, ptr %5, align 8, !tbaa !9
  br i1 %4, label %7, label %27

7:                                                ; preds = %2
  %8 = getelementptr inbounds nuw i8, ptr %6, i64 24
  %9 = load ptr, ptr %8, align 8, !tbaa !9
  %10 = ptrtoint ptr %9 to i64
  %11 = and i64 %10, 1
  %.not46 = icmp eq i64 %11, 0
  br i1 %.not46, label %12, label %lean_inc.exit26

12:                                               ; preds = %7
  %.val.i = load i32, ptr %9, align 4, !tbaa !4
  %13 = icmp sgt i32 %.val.i, 0
  br i1 %13, label %14, label %16, !prof !13

14:                                               ; preds = %12
  %15 = add nuw i32 %.val.i, 1
  store i32 %15, ptr %9, align 4, !tbaa !4
  br label %lean_inc.exit26

16:                                               ; preds = %12
  %.not.i33 = icmp eq i32 %.val.i, 0
  br i1 %.not.i33, label %lean_inc.exit26, label %17

17:                                               ; preds = %16
  tail call void @lean_inc_ref_cold(ptr noundef nonnull %9) #6
  br label %lean_inc.exit26

lean_inc.exit26:                                  ; preds = %17, %16, %14, %7
  %18 = ptrtoint ptr %6 to i64
  %19 = and i64 %18, 1
  %.not47 = icmp eq i64 %19, 0
  br i1 %.not47, label %20, label %lean_dec.exit28

20:                                               ; preds = %lean_inc.exit26
  %21 = load i32, ptr %6, align 4, !tbaa !4
  %22 = icmp sgt i32 %21, 1
  br i1 %22, label %23, label %25, !prof !13

23:                                               ; preds = %20
  %24 = add nsw i32 %21, -1
  store i32 %24, ptr %6, align 4, !tbaa !4
  br label %lean_dec.exit28

25:                                               ; preds = %20
  %.not.i = icmp eq i32 %21, 0
  br i1 %.not.i, label %lean_dec.exit28, label %26

26:                                               ; preds = %25
  tail call void @lean_dec_ref_cold(ptr noundef nonnull %6) #6
  br label %lean_dec.exit28

lean_dec.exit28:                                  ; preds = %26, %25, %23, %lean_inc.exit26
  store ptr %9, ptr %5, align 8, !tbaa !9
  br label %78

27:                                               ; preds = %2
  %28 = getelementptr inbounds nuw i8, ptr %3, i64 16
  %29 = load ptr, ptr %28, align 8, !tbaa !9
  %30 = ptrtoint ptr %29 to i64
  %31 = and i64 %30, 1
  %.not = icmp eq i64 %31, 0
  br i1 %.not, label %32, label %lean_inc.exit25

32:                                               ; preds = %27
  %.val.i34 = load i32, ptr %29, align 4, !tbaa !4
  %33 = icmp sgt i32 %.val.i34, 0
  br i1 %33, label %34, label %36, !prof !13

34:                                               ; preds = %32
  %35 = add nuw i32 %.val.i34, 1
  store i32 %35, ptr %29, align 4, !tbaa !4
  br label %lean_inc.exit25

36:                                               ; preds = %32
  %.not.i35 = icmp eq i32 %.val.i34, 0
  br i1 %.not.i35, label %lean_inc.exit25, label %37

37:                                               ; preds = %36
  tail call void @lean_inc_ref_cold(ptr noundef nonnull %29) #6
  br label %lean_inc.exit25

lean_inc.exit25:                                  ; preds = %37, %36, %34, %27
  %38 = ptrtoint ptr %6 to i64
  %39 = and i64 %38, 1
  %.not43 = icmp eq i64 %39, 0
  br i1 %.not43, label %40, label %lean_inc.exit24

40:                                               ; preds = %lean_inc.exit25
  %.val.i37 = load i32, ptr %6, align 4, !tbaa !4
  %41 = icmp sgt i32 %.val.i37, 0
  br i1 %41, label %42, label %44, !prof !13

42:                                               ; preds = %40
  %43 = add nuw i32 %.val.i37, 1
  store i32 %43, ptr %6, align 4, !tbaa !4
  br label %lean_inc.exit24

44:                                               ; preds = %40
  %.not.i38 = icmp eq i32 %.val.i37, 0
  br i1 %.not.i38, label %lean_inc.exit24, label %45

45:                                               ; preds = %44
  tail call void @lean_inc_ref_cold(ptr noundef nonnull %6) #6
  br label %lean_inc.exit24

lean_inc.exit24:                                  ; preds = %45, %44, %42, %lean_inc.exit25
  %46 = ptrtoint ptr %3 to i64
  %47 = and i64 %46, 1
  %.not44 = icmp eq i64 %47, 0
  br i1 %.not44, label %48, label %lean_dec.exit27

48:                                               ; preds = %lean_inc.exit24
  %49 = load i32, ptr %3, align 4, !tbaa !4
  %50 = icmp sgt i32 %49, 1
  br i1 %50, label %51, label %53, !prof !13

51:                                               ; preds = %48
  %52 = add nsw i32 %49, -1
  store i32 %52, ptr %3, align 4, !tbaa !4
  br label %lean_dec.exit27

53:                                               ; preds = %48
  %.not.i29 = icmp eq i32 %49, 0
  br i1 %.not.i29, label %lean_dec.exit27, label %54

54:                                               ; preds = %53
  tail call void @lean_dec_ref_cold(ptr noundef nonnull %3) #6
  br label %lean_dec.exit27

lean_dec.exit27:                                  ; preds = %54, %53, %51, %lean_inc.exit24
  %55 = getelementptr inbounds nuw i8, ptr %6, i64 24
  %56 = load ptr, ptr %55, align 8, !tbaa !9
  %57 = ptrtoint ptr %56 to i64
  %58 = and i64 %57, 1
  %.not45 = icmp eq i64 %58, 0
  br i1 %.not45, label %59, label %lean_inc.exit

59:                                               ; preds = %lean_dec.exit27
  %.val.i40 = load i32, ptr %56, align 4, !tbaa !4
  %60 = icmp sgt i32 %.val.i40, 0
  br i1 %60, label %61, label %63, !prof !13

61:                                               ; preds = %59
  %62 = add nuw i32 %.val.i40, 1
  store i32 %62, ptr %56, align 4, !tbaa !4
  br label %lean_inc.exit

63:                                               ; preds = %59
  %.not.i41 = icmp eq i32 %.val.i40, 0
  br i1 %.not.i41, label %lean_inc.exit, label %64

64:                                               ; preds = %63
  tail call void @lean_inc_ref_cold(ptr noundef nonnull %56) #6
  br label %lean_inc.exit

lean_inc.exit:                                    ; preds = %64, %63, %61, %lean_dec.exit27
  br i1 %.not43, label %65, label %lean_dec.exit

65:                                               ; preds = %lean_inc.exit
  %66 = load i32, ptr %6, align 4, !tbaa !4
  %67 = icmp sgt i32 %66, 1
  br i1 %67, label %68, label %70, !prof !13

68:                                               ; preds = %65
  %69 = add nsw i32 %66, -1
  store i32 %69, ptr %6, align 4, !tbaa !4
  br label %lean_dec.exit

70:                                               ; preds = %65
  %.not.i31 = icmp eq i32 %66, 0
  br i1 %.not.i31, label %lean_dec.exit, label %71

71:                                               ; preds = %70
  tail call void @lean_dec_ref_cold(ptr noundef nonnull %6) #6
  br label %lean_dec.exit

lean_dec.exit:                                    ; preds = %71, %70, %68, %lean_inc.exit
  tail call void @lean_inc_heartbeat() #6
  %72 = tail call noalias ptr @mi_malloc_small(i64 noundef 24) #6
  %73 = icmp eq ptr %72, null
  br i1 %73, label %74, label %lean_alloc_ctor.exit

74:                                               ; preds = %lean_dec.exit
  tail call void @lean_internal_panic_out_of_memory() #7
  unreachable

lean_alloc_ctor.exit:                             ; preds = %lean_dec.exit
  %75 = getelementptr inbounds nuw i8, ptr %72, i64 4
  store i32 1, ptr %72, align 4, !tbaa !4
  store i32 131096, ptr %75, align 4
  %76 = getelementptr inbounds nuw i8, ptr %72, i64 8
  store ptr %56, ptr %76, align 8, !tbaa !9
  %77 = getelementptr inbounds nuw i8, ptr %72, i64 16
  store ptr %29, ptr %77, align 8, !tbaa !9
  br label %78

78:                                               ; preds = %lean_alloc_ctor.exit, %lean_dec.exit28
  %.0 = phi ptr [ %3, %lean_dec.exit28 ], [ %72, %lean_alloc_ctor.exit ]
  ret ptr %.0
}